target datalayout = "e-m:e-p270:32:32-p271:32:32-p272:64:64-i64:64-i128:128-f80:128-n8:16:32:64-S128"
target triple = "x86_64-pc-linux-gnu"

%class.anon.106 = type { ptr, ptr }
%"struct.Luau::SingletonType" = type { %"class.Luau::Variant.377" }
%"class.Luau::Variant.377" = type { i32, [4 x i8], [32 x i8] }

; Function Attrs: mustprogress nounwind uwtable
define linkonce_odr dso_local void @_ZN4Luau7VariantIJNS_16BooleanSingletonENS_15StringSingletonEEED2Ev(ptr noundef nonnull align 8 dereferenceable(40) %0) unnamed_addr #2 comdat align 2 personality ptr @__gxx_personality_v0 {
  %2 = alloca ptr, align 8
  store ptr %0, ptr %2, align 8, !tbaa !863
  %3 = load ptr, ptr %2, align 8
  %4 = getelementptr inbounds nuw %"class.Luau::Variant.377", ptr %3, i32 0, i32 0
  %5 = load i32, ptr %4, align 8, !tbaa !865
  %6 = sext i32 %5 to i64
  %7 = getelementptr inbounds [2 x ptr], ptr @_ZN4Luau7VariantIJNS_16BooleanSingletonENS_15StringSingletonEEE9tableDtorE, i64 0, i64 %6
  %8 = load ptr, ptr %7, align 8, !tbaa !137
  %9 = getelementptr inbounds nuw %"class.Luau::Variant.377", ptr %3, i32 0, i32 2
  invoke void %8(ptr noundef %9)
          to label %10 unwind label %11

10:                                               ; preds = %1
  ret void

11:                                               ; preds = %1
  %12 = landingpad { ptr, i32 }
          catch ptr null
  %13 = extractvalue { ptr, i32 } %12, 0
  call void @__clang_call_terminate(ptr %13) #21
  unreachable
}

; Function Attrs: mustprogress uwtable
define linkonce_odr dso_local void @_ZN4Luau7VariantIJNS_16BooleanSingletonENS_15StringSingletonEEEC2ERKS3_(ptr noundef nonnull align 8 dereferenceable(40) %0, ptr noundef nonnull align 8 dereferenceable(40) %1) unnamed_addr #5 comdat align 2 {
  %3 = alloca ptr, align 8
  %4 = alloca ptr, align 8
  store ptr %0, ptr %3, align 8, !tbaa !863
  store ptr %1, ptr %4, align 8, !tbaa !863
  %5 = load ptr, ptr %3, align 8
  %6 = load ptr, ptr %4, align 8, !tbaa !863
  %7 = getelementptr inbounds nuw %"class.Luau::Variant.377", ptr %6, i32 0, i32 0
  %8 = load i32, ptr %7, align 8, !tbaa !865
  %9 = getelementptr inbounds nuw %"class.Luau::Variant.377", ptr %5, i32 0, i32 0
  store i32 %8, ptr %9, align 8, !tbaa !865
  %10 = getelementptr inbounds nuw %"class.Luau::Variant.377", ptr %5, i32 0, i32 0
  %11 = load i32, ptr %10, align 8, !tbaa !865
  %12 = sext i32 %11 to i64
  %13 = getelementptr inbounds [2 x ptr], ptr @_ZZN4Luau7VariantIJNS_16BooleanSingletonENS_15StringSingletonEEEC1ERKS3_E5table, i64 0, i64 %12
  %14 = load ptr, ptr %13, align 8, !tbaa !137
  %15 = getelementptr inbounds nuw %"class.Luau::Variant.377", ptr %5, i32 0, i32 2
  %16 = load ptr, ptr %4, align 8, !tbaa !863
  %17 = getelementptr inbounds nuw %"class.Luau::Variant.377", ptr %16, i32 0, i32 2
  call void %14(ptr noundef %15, ptr noundef %17)
  ret void
}

; Function Attrs: inlinehint mustprogress nounwind uwtable
define linkonce_odr dso_local void @_ZN4Luau13SingletonTypeD2Ev(ptr noundef nonnull align 8 dereferenceable(40) %0) unnamed_addr #6 comdat align 2 {
  %2 = alloca ptr, align 8
  store ptr %0, ptr %2, align 8, !tbaa !855
  %3 = load ptr, ptr %2, align 8
  %4 = getelementptr inbounds nuw %"struct.Luau::SingletonType", ptr %3, i32 0, i32 0
  call void @_ZN4Luau7VariantIJNS_16BooleanSingletonENS_15StringSingletonEEED2Ev(ptr noundef nonnull align 8 dereferenceable(40) %4) #3
  ret void
}

; Function Attrs: inlinehint mustprogress uwtable
define internal void @"_ZZN4Luau16toStringDetailedEPKNS_11TypePackVarERNS_15ToStringOptionsEENK3$_0clINS_13SingletonTypeEEEDaT_"(ptr noundef nonnull align 8 dereferenceable(16) %0, ptr noundef %1) #8 align 2 {
  %3 = alloca ptr, align 8
  %4 = alloca ptr, align 8
  store ptr %0, ptr %3, align 8, !tbaa !137
  store ptr %1, ptr %4, align 8, !tbaa !855
  %5 = load ptr, ptr %3, align 8
  %6 = getelementptr inbounds nuw %class.anon.106, ptr %5, i32 0, i32 0
  %7 = load ptr, ptr %6, align 8, !tbaa !1066
  %8 = getelementptr inbounds nuw %class.anon.106, ptr %5, i32 0, i32 1
  %9 = load ptr, ptr %8, align 8, !tbaa !243
  call void @_ZN4Luau15TypeStringifierclEPKNS_4TypeERKNS_13SingletonTypeE(ptr noundef nonnull align 8 dereferenceable(8) %7, ptr noundef %9, ptr noundef nonnull align 8 dereferenceable(40) %1)
  ret void
}

; Function Attrs: inlinehint mustprogress uwtable
define linkonce_odr dso_local void @_ZN4Luau13SingletonTypeC2ERKS0_(ptr noundef nonnull align 8 dereferenceable(40) %0, ptr noundef nonnull align 8 dereferenceable(40) %1) unnamed_addr #8 comdat align 2 {
  %3 = alloca ptr, align 8
  %4 = alloca ptr, align 8
  store ptr %0, ptr %3, align 8, !tbaa !855
  store ptr %1, ptr %4, align 8, !tbaa !855
  %5 = load ptr, ptr %3, align 8
  %6 = getelementptr inbounds nuw %"struct.Luau::SingletonType", ptr %5, i32 0, i32 0
  %7 = load ptr, ptr %4, align 8, !tbaa !855
  %8 = getelementptr inbounds nuw %"struct.Luau::SingletonType", ptr %7, i32 0, i32 0
  call void @_ZN4Luau7VariantIJNS_16BooleanSingletonENS_15StringSingletonEEEC2ERKS3_(ptr noundef nonnull align 8 dereferenceable(40) %6, ptr noundef nonnull align 8 dereferenceable(40) %8)
  ret void
}

; Function Attrs: mustprogress uwtable
define internal void @"_ZN4LuauL8fnVisitVIZNS_16toStringDetailedEPKNS_11TypePackVarERNS_15ToStringOptionsEE3$_0KNS_13SingletonTypeEEEvRT_PNSt11conditionalIXsr3stdE10is_const_vIT0_EEKvvE4typeE"(ptr noundef nonnull align 8 dereferenceable(16) %0, ptr noundef %1) #5 personality ptr @__gxx_personality_v0 {
  %3 = alloca ptr, align 8
  %4 = alloca ptr, align 8
  %5 = alloca %"struct.Luau::SingletonType", align 8
  %6 = alloca ptr, align 8
  %7 = alloca i32, align 4
  store ptr %0, ptr %3, align 8, !tbaa !137
  store ptr %1, ptr %4, align 8, !tbaa !137
  %8 = load ptr, ptr %3, align 8, !tbaa !137
  %9 = load ptr, ptr %4, align 8, !tbaa !137
  call void @_ZN4Luau13SingletonTypeC2ERKS0_(ptr noundef nonnull align 8 dereferenceable(40) %5, ptr noundef nonnull align 8 dereferenceable(40) %9)
  invoke void @"_ZZN4Luau16toStringDetailedEPKNS_11TypePackVarERNS_15ToStringOptionsEENK3$_0clINS_13SingletonTypeEEEDaT_"(ptr noundef nonnull align 8 dereferenceable(16) %8, ptr noundef %5)
          to label %10 unwind label %11

10:                                               ; preds = %2
  call void @_ZN4Luau13SingletonTypeD2Ev(ptr noundef nonnull align 8 dereferenceable(40) %5) #3
  ret void

11:                                               ; preds = %2
  %12 = landingpad { ptr, i32 }
          cleanup
  %13 = extractvalue { ptr, i32 } %12, 0
  store ptr %13, ptr %6, align 8
  %14 = extractvalue { ptr, i32 } %12, 1
  store i32 %14, ptr %7, align 4
  call void @_ZN4Luau13SingletonTypeD2Ev(ptr noundef nonnull align 8 dereferenceable(40) %5) #3
  br label %15

15:                                               ; preds = %11
  %16 = load ptr, ptr %6, align 8
  %17 = load i32, ptr %7, align 4
  %18 = insertvalue { ptr, i32 } poison, ptr %16, 0
  %19 = insertvalue { ptr, i32 } %18, i32 %17, 1
  resume { ptr, i32 } %19
}