; Function Attrs: mustprogress uwtable
define internal void @"_ZN4LuauL8fnVisitVIZNS_16toStringDetailedEPKNS_11TypePackVarERNS_15ToStringOptionsEE3$_0KNS_13SingletonTypeEEEvRT_PNSt11conditionalIXsr3stdE10is_const_vIT0_EEKvvE4typeE"(ptr noundef nonnull readonly align 8 captures(none) dereferenceable(16) %0, ptr noundef %1) #6 personality ptr @__gxx_personality_v0 {
  %3 = alloca %"struct.Luau::SingletonType", align 8
  %4 = load i32, ptr %1, align 8, !tbaa !561
  store i32 %4, ptr %3, align 8, !tbaa !561
  %5 = sext i32 %4 to i64
  %6 = getelementptr inbounds [2 x ptr], ptr @_ZZN4Luau7VariantIJNS_16BooleanSingletonENS_15StringSingletonEEEC1ERKS3_E5table, i64 0, i64 %5
  %7 = load ptr, ptr %6, align 8, !tbaa !98
  %8 = getelementptr inbounds nuw i8, ptr %3, i64 8
  %9 = getelementptr inbounds nuw i8, ptr %1, i64 8
  call void %7(ptr noundef nonnull %8, ptr noundef nonnull %9)
  %.val = load ptr, ptr %0, align 8, !tbaa !652
  %10 = getelementptr inbounds nuw i8, ptr %0, i64 8
  %.val3 = load ptr, ptr %10, align 8, !tbaa !250
  invoke void @_ZN4Luau15TypeStringifierclEPKNS_4TypeERKNS_13SingletonTypeE(ptr noundef nonnull align 8 dereferenceable(8) %.val, ptr noundef %.val3, ptr noundef nonnull align 8 dereferenceable(40) %3)
          to label %"_ZZN4Luau16toStringDetailedEPKNS_11TypePackVarERNS_15ToStringOptionsEENK3$_0clINS_13SingletonTypeEEEDaT_.exit" unwind label %18

"_ZZN4Luau16toStringDetailedEPKNS_11TypePackVarERNS_15ToStringOptionsEENK3$_0clINS_13SingletonTypeEEEDaT_.exit": ; preds = %2
  %11 = load i32, ptr %3, align 8, !tbaa !561
  %12 = sext i32 %11 to i64
  %13 = getelementptr inbounds [2 x ptr], ptr @_ZN4Luau7VariantIJNS_16BooleanSingletonENS_15StringSingletonEEE9tableDtorE, i64 0, i64 %12
  %14 = load ptr, ptr %13, align 8, !tbaa !98
  invoke void %14(ptr noundef nonnull %8)
          to label %_ZN4Luau13SingletonTypeD2Ev.exit unwind label %15

15:                                               ; preds = %"_ZZN4Luau16toStringDetailedEPKNS_11TypePackVarERNS_15ToStringOptionsEENK3$_0clINS_13SingletonTypeEEEDaT_.exit"
  %16 = landingpad { ptr, i32 }
          catch ptr null
  %17 = extractvalue { ptr, i32 } %16, 0
  call void @__clang_call_terminate(ptr %17) #33
  unreachable

_ZN4Luau13SingletonTypeD2Ev.exit:                 ; preds = %"_ZZN4Luau16toStringDetailedEPKNS_11TypePackVarERNS_15ToStringOptionsEENK3$_0clINS_13SingletonTypeEEEDaT_.exit"
  ret void

18:                                               ; preds = %2
  %19 = landingpad { ptr, i32 }
          cleanup
  %20 = load i32, ptr %3, align 8, !tbaa !561
  %21 = sext i32 %20 to i64
  %22 = getelementptr inbounds [2 x ptr], ptr @_ZN4Luau7VariantIJNS_16BooleanSingletonENS_15StringSingletonEEE9tableDtorE, i64 0, i64 %21
  %23 = load ptr, ptr %22, align 8, !tbaa !98
  invoke void %23(ptr noundef nonnull %8)
          to label %_ZN4Luau13SingletonTypeD2Ev.exit4 unwind label %24

24:                                               ; preds = %18
  %25 = landingpad { ptr, i32 }
          catch ptr null
  %26 = extractvalue { ptr, i32 } %25, 0
  call void @__clang_call_terminate(ptr %26) #33
  unreachable

_ZN4Luau13SingletonTypeD2Ev.exit4:                ; preds = %18
  resume { ptr, i32 } %19
}